target datalayout = "e-m:e-p270:32:32-p271:32:32-p272:64:64-i64:64-i128:128-f80:128-n8:16:32:64-S128"
target triple = "x86_64-unknown-linux-gnu"

%"class.QuantLib::Null" = type { i8 }
%"class.QuantLib::IntervalPrice" = type { double, double, double, double }

; Function Attrs: mustprogress nounwind uwtable
define linkonce_odr noundef float @_ZNSt14numeric_limitsIfE3maxEv() #3 comdat align 2 {
entry:
  ret float 0x47EFFFFFE0000000
}

; Function Attrs: mustprogress nounwind uwtable
define linkonce_odr noundef float @_ZN8QuantLib6detail17FloatingPointNullILb1EE9nullValueEv() #3 comdat align 2 {
entry:
  %call = call noundef float @_ZNSt14numeric_limitsIfE3maxEv() #15
  ret float %call
}

; Function Attrs: mustprogress uwtable
define linkonce_odr noundef double @_ZNK8QuantLib4NullIdEcvdEv(ptr noundef nonnull align 1 dereferenceable(1) %this) #0 comdat align 2 {
entry:
  %this.addr = alloca ptr, align 8
  store ptr %this, ptr %this.addr, align 8, !tbaa !7
  %call = call noundef float @_ZN8QuantLib6detail17FloatingPointNullILb1EE9nullValueEv()
  %conv = fpext float %call to double
  ret double %conv
}

; Function Attrs: mustprogress uwtable
define void @_ZN8QuantLib13IntervalPriceC2Ev(ptr noundef nonnull align 8 dereferenceable(32) %this) unnamed_addr #0 align 2 {
entry:
  %this.addr = alloca ptr, align 8
  %ref.tmp = alloca %"class.QuantLib::Null", align 1
  %ref.tmp2 = alloca %"class.QuantLib::Null", align 1
  %ref.tmp4 = alloca %"class.QuantLib::Null", align 1
  %ref.tmp6 = alloca %"class.QuantLib::Null", align 1
  store ptr %this, ptr %this.addr, align 8, !tbaa !7
  %this1 = load ptr, ptr %this.addr, align 8
  %open_ = getelementptr inbounds nuw %"class.QuantLib::IntervalPrice", ptr %this1, i32 0, i32 0
  call void @llvm.lifetime.start.p0(i64 1, ptr %ref.tmp) #15
  %call = call noundef double @_ZNK8QuantLib4NullIdEcvdEv(ptr noundef nonnull align 1 dereferenceable(1) %ref.tmp)
  call void @llvm.lifetime.end.p0(i64 1, ptr %ref.tmp) #15
  store double %call, ptr %open_, align 8, !tbaa !11
  %close_ = getelementptr inbounds nuw %"class.QuantLib::IntervalPrice", ptr %this1, i32 0, i32 1
  call void @llvm.lifetime.start.p0(i64 1, ptr %ref.tmp2) #15
  %call3 = call noundef double @_ZNK8QuantLib4NullIdEcvdEv(ptr noundef nonnull align 1 dereferenceable(1) %ref.tmp2)
  call void @llvm.lifetime.end.p0(i64 1, ptr %ref.tmp2) #15
  store double %call3, ptr %close_, align 8, !tbaa !13
  %high_ = getelementptr inbounds nuw %"class.QuantLib::IntervalPrice", ptr %this1, i32 0, i32 2
  call void @llvm.lifetime.start.p0(i64 1, ptr %ref.tmp4) #15
  %call5 = call noundef double @_ZNK8QuantLib4NullIdEcvdEv(ptr noundef nonnull align 1 dereferenceable(1) %ref.tmp4)
  call void @llvm.lifetime.end.p0(i64 1, ptr %ref.tmp4) #15
  store double %call5, ptr %high_, align 8, !tbaa !14
  %low_ = getelementptr inbounds nuw %"class.QuantLib::IntervalPrice", ptr %this1, i32 0, i32 3
  call void @llvm.lifetime.start.p0(i64 1, ptr %ref.tmp6) #15
  %call7 = call noundef double @_ZNK8QuantLib4NullIdEcvdEv(ptr noundef nonnull align 1 dereferenceable(1) %ref.tmp6)
  call void @llvm.lifetime.end.p0(i64 1, ptr %ref.tmp6) #15
  store double %call7, ptr %low_, align 8, !tbaa !15
  ret void
}