; Function Attrs: mustprogress nofree norecurse nosync nounwind willreturn memory(argmem: write) uwtable
define void @_ZN8QuantLib13IntervalPriceC2Ev(ptr nocapture noundef nonnull writeonly align 8 dereferenceable(32) %this) unnamed_addr #6 align 2 {
entry:
  store double 0x47EFFFFFE0000000, ptr %this, align 8, !tbaa !18
  %close_ = getelementptr inbounds nuw i8, ptr %this, i64 8
  store double 0x47EFFFFFE0000000, ptr %close_, align 8, !tbaa !21
  %high_ = getelementptr inbounds nuw i8, ptr %this, i64 16
  store double 0x47EFFFFFE0000000, ptr %high_, align 8, !tbaa !22
  %low_ = getelementptr inbounds nuw i8, ptr %this, i64 24
  store double 0x47EFFFFFE0000000, ptr %low_, align 8, !tbaa !23
  ret void
}